target datalayout = "e-m:e-p270:32:32-p271:32:32-p272:64:64-i64:64-i128:128-f80:128-n8:16:32:64-S128"
target triple = "x86_64-unknown-linux-gnu"

%"class.absl::container_internal::HashSetResizeHelper" = type <{ ptr, i64, i8, [7 x i8] }>

; Function Attrs: mustprogress nounwind uwtable
define dso_local void @_ZNK4absl18container_internal19HashSetResizeHelper38GrowIntoSingleGroupShuffleControlBytesEPNS0_6ctrl_tEm(ptr noundef nonnull align 8 dereferenceable(17) %this, ptr noundef %new_ctrl, i64 noundef %new_capacity) #1 align 2 {
entry:
  %this.addr = alloca ptr, align 8
  %new_ctrl.addr = alloca ptr, align 8
  %new_capacity.addr = alloca i64, align 8
  %kHalfWidth = alloca i64, align 8
  %half_old_capacity = alloca i64, align 8
  %g = alloca [8 x i8], align 1
  store ptr %this, ptr %this.addr, align 8
  store ptr %new_ctrl, ptr %new_ctrl.addr, align 8
  store i64 %new_capacity, ptr %new_capacity.addr, align 8
  %this1 = load ptr, ptr %this.addr, align 8
  store i64 8, ptr %kHalfWidth, align 8
  %old_capacity_ = getelementptr inbounds %"class.absl::container_internal::HashSetResizeHelper", ptr %this1, i32 0, i32 1
  %0 = load i64, ptr %old_capacity_, align 8
  %div = udiv i64 %0, 2
  store i64 %div, ptr %half_old_capacity, align 8
  %1 = load ptr, ptr %new_ctrl.addr, align 8
  %old_ctrl_ = getelementptr inbounds %"class.absl::container_internal::HashSetResizeHelper", ptr %this1, i32 0, i32 0
  %2 = load ptr, ptr %old_ctrl_, align 8
  %3 = load i64, ptr %half_old_capacity, align 8
  %add.ptr = getelementptr inbounds i8, ptr %2, i64 %3
  %add.ptr2 = getelementptr inbounds i8, ptr %add.ptr, i64 1
  call void @llvm.memcpy.p0.p0.i64(ptr align 1 %1, ptr align 1 %add.ptr2, i64 8, i1 false)
  %4 = load ptr, ptr %new_ctrl.addr, align 8
  %5 = load i64, ptr %half_old_capacity, align 8
  %arrayidx = getelementptr inbounds i8, ptr %4, i64 %5
  store i8 -128, ptr %arrayidx, align 1
  %6 = load ptr, ptr %new_ctrl.addr, align 8
  %old_capacity_3 = getelementptr inbounds %"class.absl::container_internal::HashSetResizeHelper", ptr %this1, i32 0, i32 1
  %7 = load i64, ptr %old_capacity_3, align 8
  %add.ptr4 = getelementptr inbounds i8, ptr %6, i64 %7
  %add.ptr5 = getelementptr inbounds i8, ptr %add.ptr4, i64 1
  call void @llvm.memset.p0.i64(ptr align 1 %add.ptr5, i8 -128, i64 8, i1 false)
  %8 = load ptr, ptr %new_ctrl.addr, align 8
  %add.ptr6 = getelementptr inbounds i8, ptr %8, i64 8
  call void @llvm.memset.p0.i64(ptr align 1 %add.ptr6, i8 -128, i64 8, i1 false)
  %9 = load ptr, ptr %new_ctrl.addr, align 8
  %10 = load i64, ptr %new_capacity.addr, align 8
  %add.ptr7 = getelementptr inbounds i8, ptr %9, i64 %10
  %add.ptr8 = getelementptr inbounds i8, ptr %add.ptr7, i64 8
  call void @llvm.memset.p0.i64(ptr align 1 %add.ptr8, i8 -128, i64 8, i1 false)
  %arraydecay = getelementptr inbounds [8 x i8], ptr %g, i64 0, i64 0
  %11 = load ptr, ptr %new_ctrl.addr, align 8
  call void @llvm.memcpy.p0.p0.i64(ptr align 1 %arraydecay, ptr align 1 %11, i64 8, i1 false)
  %12 = load ptr, ptr %new_ctrl.addr, align 8
  %13 = load i64, ptr %new_capacity.addr, align 8
  %add.ptr9 = getelementptr inbounds i8, ptr %12, i64 %13
  %add.ptr10 = getelementptr inbounds i8, ptr %add.ptr9, i64 1
  %arraydecay11 = getelementptr inbounds [8 x i8], ptr %g, i64 0, i64 0
  call void @llvm.memcpy.p0.p0.i64(ptr align 1 %add.ptr10, ptr align 1 %arraydecay11, i64 8, i1 false)
  %14 = load ptr, ptr %new_ctrl.addr, align 8
  %15 = load i64, ptr %new_capacity.addr, align 8
  %arrayidx12 = getelementptr inbounds i8, ptr %14, i64 %15
  store i8 -1, ptr %arrayidx12, align 1
  ret void
}