; Function Attrs: mustprogress nofree norecurse nosync nounwind willreturn memory(read, argmem: readwrite, inaccessiblemem: none) uwtable
define dso_local void @_ZNK4absl18container_internal19HashSetResizeHelper38GrowIntoSingleGroupShuffleControlBytesEPNS0_6ctrl_tEm(ptr noundef nonnull readonly align 8 captures(none) dereferenceable(17) %this, ptr noundef captures(none) initializes((0, 16)) %new_ctrl, i64 noundef %new_capacity) local_unnamed_addr #9 align 2 {
entry:
  %old_capacity_ = getelementptr inbounds nuw i8, ptr %this, i64 8
  %0 = load i64, ptr %old_capacity_, align 8
  %div12 = lshr i64 %0, 1
  %1 = load ptr, ptr %this, align 8
  %add.ptr = getelementptr inbounds nuw i8, ptr %1, i64 %div12
  %add.ptr2 = getelementptr inbounds nuw i8, ptr %add.ptr, i64 1
  %2 = load i64, ptr %add.ptr2, align 1
  store i64 %2, ptr %new_ctrl, align 1
  %arrayidx = getelementptr inbounds nuw i8, ptr %new_ctrl, i64 %div12
  store i8 -128, ptr %arrayidx, align 1
  %3 = load i64, ptr %old_capacity_, align 8
  %add.ptr4 = getelementptr inbounds i8, ptr %new_ctrl, i64 %3
  %add.ptr5 = getelementptr inbounds nuw i8, ptr %add.ptr4, i64 1
  store i64 -9187201950435737472, ptr %add.ptr5, align 1
  %add.ptr6 = getelementptr inbounds nuw i8, ptr %new_ctrl, i64 8
  store i64 -9187201950435737472, ptr %add.ptr6, align 1
  %add.ptr7 = getelementptr inbounds i8, ptr %new_ctrl, i64 %new_capacity
  %add.ptr8 = getelementptr inbounds nuw i8, ptr %add.ptr7, i64 8
  store i64 -9187201950435737472, ptr %add.ptr8, align 1
  %g.sroa.0.0.copyload = load i64, ptr %new_ctrl, align 1
  %add.ptr10 = getelementptr inbounds nuw i8, ptr %add.ptr7, i64 1
  store i64 %g.sroa.0.0.copyload, ptr %add.ptr10, align 1
  store i8 -1, ptr %add.ptr7, align 1
  ret void
}